; ModuleID = '40/1989.c'
source_filename = "40/1989.c"
target datalayout = "e-m:e-p270:32:32-p271:32:32-p272:64:64-i64:64-f80:128-n8:16:32:64-S128"
target triple = "x86_64-pc-linux-gnu"

@.str = private unnamed_addr constant [21 x i8] c"%lf\0A%lf\0A%lf\0A%lf\0A%lf\0A\00", align 1
@.str.1 = private unnamed_addr constant [6 x i8] c"%.4lf\00", align 1
@.str.2 = private unnamed_addr constant [15 x i8] c"Invalid input\0A\00", align 1

; Function Attrs: noinline nounwind uwtable
define dso_local i32 @main() #0 {
  %1 = alloca i32, align 4
  %2 = alloca double, align 8
  %3 = alloca double, align 8
  %4 = alloca double, align 8
  %5 = alloca double, align 8
  %6 = alloca double, align 8
  %7 = alloca double, align 8
  %8 = alloca double, align 8
  %9 = alloca double, align 8
  %10 = alloca double, align 8
  %11 = alloca double, align 8
  %12 = alloca double, align 8
  %13 = alloca double, align 8
  %14 = alloca double, align 8
  %15 = alloca double, align 8
  %16 = alloca double, align 8
  store i32 0, i32* %1, align 4
  %17 = call i32 (i8*, ...) @__isoc99_scanf(i8* getelementptr inbounds ([21 x i8], [21 x i8]* @.str, i64 0, i64 0), double* %2, double* %3, double* %4, double* %5, double* %6)
  %18 = load double, double* %2, align 8
  %19 = load double, double* %3, align 8
  %20 = fadd double %18, %19
  %21 = load double, double* %4, align 8
  %22 = fadd double %20, %21
  %23 = load double, double* %5, align 8
  %24 = fadd double %22, %23
  %25 = fdiv double %24, 2.000000e+00
  store double %25, double* %7, align 8
  %26 = load double, double* %7, align 8
  %27 = load double, double* %2, align 8
  %28 = fsub double %26, %27
  store double %28, double* %8, align 8
  %29 = load double, double* %7, align 8
  %30 = load double, double* %3, align 8
  %31 = fsub double %29, %30
  store double %31, double* %9, align 8
  %32 = load double, double* %7, align 8
  %33 = load double, double* %4, align 8
  %34 = fsub double %32, %33
  store double %34, double* %10, align 8
  %35 = load double, double* %7, align 8
  %36 = load double, double* %5, align 8
  %37 = fsub double %35, %36
  store double %37, double* %11, align 8
  %38 = load double, double* %6, align 8
  %39 = fdiv double %38, 2.000000e+00
  store double %39, double* %12, align 8
  %40 = load double, double* %12, align 8
  %41 = fmul double 0x400921FB4D12D84A, %40
  %42 = fdiv double %41, 1.800000e+02
  store double %42, double* %16, align 8
  %43 = load double, double* %2, align 8
  %44 = load double, double* %3, align 8
  %45 = fmul double %43, %44
  %46 = load double, double* %4, align 8
  %47 = fmul double %45, %46
  %48 = load double, double* %5, align 8
  %49 = fmul double %47, %48
  %50 = load double, double* %16, align 8
  %51 = call double @cos(double %50) #3
  %52 = fmul double %49, %51
  %53 = load double, double* %16, align 8
  %54 = call double @cos(double %53) #3
  %55 = fmul double %52, %54
  store double %55, double* %14, align 8
  %56 = load double, double* %8, align 8
  %57 = load double, double* %9, align 8
  %58 = fmul double %56, %57
  %59 = load double, double* %10, align 8
  %60 = fmul double %58, %59
  %61 = load double, double* %11, align 8
  %62 = fmul double %60, %61
  store double %62, double* %13, align 8
  %63 = load double, double* %13, align 8
  %64 = load double, double* %14, align 8
  %65 = fsub double %63, %64
  store double %65, double* %15, align 8
  %66 = load double, double* %15, align 8
  %67 = fcmp ogt double %66, 0.000000e+00
  br i1 %67, label %68, label %73

68:                                               ; preds = %0
  %69 = load double, double* %15, align 8
  %70 = call double @sqrt(double %69) #3
  store double %70, double* %7, align 8
  %71 = load double, double* %7, align 8
  %72 = call i32 (i8*, ...) @printf(i8* getelementptr inbounds ([6 x i8], [6 x i8]* @.str.1, i64 0, i64 0), double %71)
  br label %75

73:                                               ; preds = %0
  %74 = call i32 (i8*, ...) @printf(i8* getelementptr inbounds ([15 x i8], [15 x i8]* @.str.2, i64 0, i64 0))
  br label %75

75:                                               ; preds = %73, %68
  ret i32 0
}

declare dso_local i32 @__isoc99_scanf(i8*, ...) #1

; Function Attrs: nounwind
declare dso_local double @cos(double) #2

; Function Attrs: nounwind
declare dso_local double @sqrt(double) #2

declare dso_local i32 @printf(i8*, ...) #1


!llvm.module.flags = !{!0}
!llvm.ident = !{!1}

!0 = !{i32 1, !"wchar_size", i32 4}
!1 = !{!"clang version 10.0.0-4ubuntu1 "}
